target datalayout = "e-m:e-p270:32:32-p271:32:32-p272:64:64-i64:64-i128:128-f80:128-n8:16:32:64-S128"
target triple = "x86_64-pc-linux-gnu"

%struct.BackendGlobalData = type <{ ptr, ptr, i8, i8, i8, i8, i8, i8, i8, i8, i8, [3 x i8], i32, ptr, ptr, ptr, ptr, ptr, ptr, ptr, ptr, ptr, ptr, ptr, ptr, ptr, i32, %struct.jvmtiCapabilities, i8, [3 x i8], %struct.jvmtiEventCallbacks, ptr, ptr, ptr, ptr, ptr, ptr, ptr, i32, [4 x i8], ptr, i64, i32, [4 x i8], ptr, i32, i32, i8, i8, [6 x i8] }>
%struct.jvmtiCapabilities = type { i64, i64 }
%struct.jvmtiEventCallbacks = type { ptr, ptr, ptr, ptr, ptr, ptr, ptr, ptr, ptr, ptr, ptr, ptr, ptr, ptr, ptr, ptr, ptr, ptr, ptr, ptr, ptr, ptr, ptr, ptr, ptr, ptr, ptr, ptr, ptr, ptr, ptr, ptr, ptr, ptr, ptr, ptr, ptr, ptr, ptr }
%struct.jvmtiInterface_1_ = type { ptr, ptr, ptr, ptr, ptr, ptr, ptr, ptr, ptr, ptr, ptr, ptr, ptr, ptr, ptr, ptr, ptr, ptr, ptr, ptr, ptr, ptr, ptr, ptr, ptr, ptr, ptr, ptr, ptr, ptr, ptr, ptr, ptr, ptr, ptr, ptr, ptr, ptr, ptr, ptr, ptr, ptr, ptr, ptr, ptr, ptr, ptr, ptr, ptr, ptr, ptr, ptr, ptr, ptr, ptr, ptr, ptr, ptr, ptr, ptr, ptr, ptr, ptr, ptr, ptr, ptr, ptr, ptr, ptr, ptr, ptr, ptr, ptr, ptr, ptr, ptr, ptr, ptr, ptr, ptr, ptr, ptr, ptr, ptr, ptr, ptr, ptr, ptr, ptr, ptr, ptr, ptr, ptr, ptr, ptr, ptr, ptr, ptr, ptr, ptr, ptr, ptr, ptr, ptr, ptr, ptr, ptr, ptr, ptr, ptr, ptr, ptr, ptr, ptr, ptr, ptr, ptr, ptr, ptr, ptr, ptr, ptr, ptr, ptr, ptr, ptr, ptr, ptr, ptr, ptr, ptr, ptr, ptr, ptr, ptr, ptr, ptr, ptr, ptr, ptr, ptr, ptr, ptr, ptr, ptr, ptr, ptr, ptr, ptr, ptr, ptr, ptr, ptr, ptr, ptr, ptr }

@.str.6 = private unnamed_addr constant [14 x i8] c"GetFrameCount\00", align 1
@gdata = external global ptr, align 8
@.str.16 = private unnamed_addr constant [6 x i8] c"JVMTI\00", align 1
@.str.17 = private unnamed_addr constant [62 x i8] c"src/jdk.jdwp.agent/share/native/libjdwp/ThreadReferenceImpl.c\00", align 1
@.str.18 = private unnamed_addr constant [5 x i8] c"%s()\00", align 1

; Function Attrs: nounwind uwtable
define internal zeroext i8 @validateSuspendedThread(ptr noundef %0, ptr noundef %1) #0 {
  %3 = alloca i8, align 1
  %4 = alloca ptr, align 8
  %5 = alloca ptr, align 8
  %6 = alloca i32, align 4
  %7 = alloca i32, align 4
  store ptr %0, ptr %4, align 8
  store ptr %1, ptr %5, align 8
  %8 = load ptr, ptr %5, align 8
  %9 = call i32 @threadControl_suspendCount(ptr noundef %8, ptr noundef %7)
  store i32 %9, ptr %6, align 4
  %10 = load i32, ptr %6, align 4
  %11 = icmp ne i32 %10, 0
  br i1 %11, label %12, label %16

12:                                               ; preds = %2
  %13 = load ptr, ptr %4, align 8
  %14 = load i32, ptr %6, align 4
  %15 = call zeroext i16 @map2jdwpError(i32 noundef %14)
  call void @outStream_setError(ptr noundef %13, i16 noundef zeroext %15)
  store i8 0, ptr %3, align 1
  br label %22

16:                                               ; preds = %2
  %17 = load i32, ptr %7, align 4
  %18 = icmp eq i32 %17, 0
  br i1 %18, label %19, label %21

19:                                               ; preds = %16
  %20 = load ptr, ptr %4, align 8
  call void @outStream_setError(ptr noundef %20, i16 noundef zeroext 13)
  store i8 0, ptr %3, align 1
  br label %22

21:                                               ; preds = %16
  store i8 1, ptr %3, align 1
  br label %22

22:                                               ; preds = %21, %19, %12
  %23 = load i8, ptr %3, align 1
  ret i8 %23
}

; Function Attrs: nounwind uwtable
define internal zeroext i8 @getFrameCount(ptr noundef %0, ptr noundef %1) #0 {
  %3 = alloca i8, align 1
  %4 = alloca ptr, align 8
  %5 = alloca ptr, align 8
  %6 = alloca i32, align 4
  %7 = alloca i32, align 4
  %8 = alloca ptr, align 8
  store ptr %0, ptr %4, align 8
  store ptr %1, ptr %5, align 8
  %9 = call ptr @getEnv()
  %10 = load ptr, ptr %4, align 8
  %11 = call ptr @inStream_readThreadRef(ptr noundef %9, ptr noundef %10)
  store ptr %11, ptr %8, align 8
  %12 = load ptr, ptr %4, align 8
  %13 = call zeroext i16 @inStream_error(ptr noundef %12)
  %14 = icmp ne i16 %13, 0
  br i1 %14, label %15, label %16

15:                                               ; preds = %2
  store i8 1, ptr %3, align 1
  br label %58

16:                                               ; preds = %2
  %17 = load ptr, ptr %8, align 8
  %18 = call zeroext i8 @threadControl_isDebugThread(ptr noundef %17)
  %19 = icmp ne i8 %18, 0
  br i1 %19, label %20, label %22

20:                                               ; preds = %16
  %21 = load ptr, ptr %5, align 8
  call void @outStream_setError(ptr noundef %21, i16 noundef zeroext 10)
  store i8 1, ptr %3, align 1
  br label %58

22:                                               ; preds = %16
  %23 = load ptr, ptr %5, align 8
  %24 = load ptr, ptr %8, align 8
  %25 = call zeroext i8 @validateSuspendedThread(ptr noundef %23, ptr noundef %24)
  %26 = icmp ne i8 %25, 0
  br i1 %26, label %28, label %27

27:                                               ; preds = %22
  store i8 1, ptr %3, align 1
  br label %58

28:                                               ; preds = %22
  %29 = load ptr, ptr @gdata, align 8
  %30 = getelementptr inbounds %struct.BackendGlobalData, ptr %29, i32 0, i32 38
  %31 = load i32, ptr %30, align 8
  %32 = and i32 %31, 4
  %33 = icmp ne i32 %32, 0
  br i1 %33, label %34, label %35

34:                                               ; preds = %28
  call void @log_message_begin(ptr noundef @.str.16, ptr noundef @.str.17, i32 noundef 337)
  call void (ptr, ...) @log_message_end(ptr noundef @.str.18, ptr noundef @.str.6)
  br label %36

35:                                               ; preds = %28
  br label %36

36:                                               ; preds = %35, %34
  %37 = load ptr, ptr @gdata, align 8
  %38 = getelementptr inbounds %struct.BackendGlobalData, ptr %37, i32 0, i32 0
  %39 = load ptr, ptr %38, align 8
  %40 = load ptr, ptr %39, align 8
  %41 = getelementptr inbounds %struct.jvmtiInterface_1_, ptr %40, i32 0, i32 15
  %42 = load ptr, ptr %41, align 8
  %43 = load ptr, ptr @gdata, align 8
  %44 = getelementptr inbounds %struct.BackendGlobalData, ptr %43, i32 0, i32 0
  %45 = load ptr, ptr %44, align 8
  %46 = load ptr, ptr %8, align 8
  %47 = call i32 %42(ptr noundef %45, ptr noundef %46, ptr noundef %7)
  store i32 %47, ptr %6, align 4
  %48 = load i32, ptr %6, align 4
  %49 = icmp ne i32 %48, 0
  br i1 %49, label %50, label %54

50:                                               ; preds = %36
  %51 = load ptr, ptr %5, align 8
  %52 = load i32, ptr %6, align 4
  %53 = call zeroext i16 @map2jdwpError(i32 noundef %52)
  call void @outStream_setError(ptr noundef %51, i16 noundef zeroext %53)
  store i8 1, ptr %3, align 1
  br label %58

54:                                               ; preds = %36
  %55 = load ptr, ptr %5, align 8
  %56 = load i32, ptr %7, align 4
  %57 = call zeroext i16 @outStream_writeInt(ptr noundef %55, i32 noundef %56)
  store i8 1, ptr %3, align 1
  br label %58

58:                                               ; preds = %54, %50, %27, %20, %15
  %59 = load i8, ptr %3, align 1
  ret i8 %59
}