; Function Attrs: nounwind uwtable
define internal noundef zeroext i8 @getFrameCount(ptr noundef %0, ptr noundef %1) #0 {
  %3 = alloca i32, align 4
  %4 = alloca i32, align 4
  %5 = tail call ptr @getEnv() #4
  %6 = tail call ptr @inStream_readThreadRef(ptr noundef %5, ptr noundef %0) #4
  %7 = tail call zeroext i16 @inStream_error(ptr noundef %0) #4
  %.not = icmp eq i16 %7, 0
  br i1 %.not, label %8, label %36

8:                                                ; preds = %2
  %9 = tail call zeroext i8 @threadControl_isDebugThread(ptr noundef %6) #4
  %.not11 = icmp eq i8 %9, 0
  br i1 %.not11, label %11, label %10

10:                                               ; preds = %8
  tail call void @outStream_setError(ptr noundef %1, i16 noundef zeroext 10) #4
  br label %36

11:                                               ; preds = %8
  call void @llvm.lifetime.start.p0(i64 4, ptr nonnull %3)
  %12 = call i32 @threadControl_suspendCount(ptr noundef %6, ptr noundef nonnull %3) #4
  %.not.i = icmp eq i32 %12, 0
  br i1 %.not.i, label %15, label %13

13:                                               ; preds = %11
  %14 = call zeroext i16 @map2jdwpError(i32 noundef %12) #4
  br label %validateSuspendedThread.exit.thread

15:                                               ; preds = %11
  %16 = load i32, ptr %3, align 4
  %17 = icmp eq i32 %16, 0
  br i1 %17, label %validateSuspendedThread.exit.thread, label %18

validateSuspendedThread.exit.thread:              ; preds = %13, %15
  %.sink.i = phi i16 [ %14, %13 ], [ 13, %15 ]
  call void @outStream_setError(ptr noundef %1, i16 noundef zeroext %.sink.i) #4
  call void @llvm.lifetime.end.p0(i64 4, ptr nonnull %3)
  br label %36

18:                                               ; preds = %15
  call void @llvm.lifetime.end.p0(i64 4, ptr nonnull %3)
  %19 = load ptr, ptr @gdata, align 8
  %20 = getelementptr inbounds i8, ptr %19, i64 528
  %21 = load i32, ptr %20, align 8
  %22 = and i32 %21, 4
  %.not13 = icmp eq i32 %22, 0
  br i1 %.not13, label %24, label %23

23:                                               ; preds = %18
  call void @log_message_begin(ptr noundef nonnull @.str.16, ptr noundef nonnull @.str.17, i32 noundef 337) #4
  call void (ptr, ...) @log_message_end(ptr noundef nonnull @.str.18, ptr noundef nonnull @.str.6) #4
  %.pre = load ptr, ptr @gdata, align 8
  br label %24

24:                                               ; preds = %18, %23
  %25 = phi ptr [ %19, %18 ], [ %.pre, %23 ]
  %26 = load ptr, ptr %25, align 8
  %27 = load ptr, ptr %26, align 8
  %28 = getelementptr inbounds i8, ptr %27, i64 120
  %29 = load ptr, ptr %28, align 8
  %30 = call i32 %29(ptr noundef nonnull %26, ptr noundef %6, ptr noundef nonnull %4) #4
  %.not14 = icmp eq i32 %30, 0
  br i1 %.not14, label %33, label %31

31:                                               ; preds = %24
  %32 = call zeroext i16 @map2jdwpError(i32 noundef %30) #4
  call void @outStream_setError(ptr noundef %1, i16 noundef zeroext %32) #4
  br label %36

33:                                               ; preds = %24
  %34 = load i32, ptr %4, align 4
  %35 = call zeroext i16 @outStream_writeInt(ptr noundef %1, i32 noundef %34) #4
  br label %36

36:                                               ; preds = %validateSuspendedThread.exit.thread, %2, %33, %31, %10
  ret i8 1
}